; Function Attrs: null_pointer_is_valid sspstrong uwtable
define internal i32 @glusterfs_gfs4_0_op_rmdir_call(ptr noundef %0, ptr readnone captures(none) %1, ptr noundef %2, ptr readnone captures(none) %3) #0 {
  %5 = load i32, ptr @hf_glusterfs_pargfid, align 4
  %6 = tail call ptr @proto_tree_add_item(ptr noundef %2, i32 noundef %5, ptr noundef %0, i32 noundef 0, i32 noundef 16, i32 noundef 0)
  %7 = tail call i32 @tvb_get_ntohl(ptr noundef %0, i32 noundef 16)
  %8 = load i32, ptr @hf_glusterfs_xflags, align 4
  %9 = tail call ptr (ptr, i32, ptr, i32, i32, i32, ptr, ...) @proto_tree_add_uint_format(ptr noundef %2, i32 noundef %8, ptr noundef %0, i32 noundef 16, i32 noundef 4, i32 noundef %7, ptr noundef nonnull @.str.574, i32 noundef %7)
  %10 = load i32, ptr @hf_glusterfs_bname, align 4
  %11 = tail call i32 @dissect_rpc_string(ptr noundef %0, ptr noundef %2, i32 noundef %10, i32 noundef 20, ptr noundef null)
  %12 = load i32, ptr @hf_glusterfs_dict, align 4
  %13 = tail call fastcc i32 @gluster_rpc4_0_dissect_dict(ptr noundef %2, ptr noundef %0, i32 noundef %12, i32 noundef %11)
  ret i32 %13
}